target datalayout = "e-m:e-p270:32:32-p271:32:32-p272:64:64-i64:64-i128:128-f80:128-n8:16:32:64-S128"
target triple = "x86_64-unknown-linux-gnu"

%"class.std::basic_istream" = type { ptr, i64, %"class.std::basic_ios" }
%"class.std::basic_ios" = type { %"class.std::ios_base", ptr, i8, i8, ptr, ptr, ptr, ptr }
%"class.std::ios_base" = type { ptr, i64, i64, i32, i32, i32, ptr, %"struct.std::ios_base::_Words", [8 x %"struct.std::ios_base::_Words"], i32, ptr, %"class.std::locale" }
%"struct.std::ios_base::_Words" = type { ptr, i64 }
%"class.std::locale" = type { ptr }
%"class.std::basic_ostream" = type { ptr, %"class.std::basic_ios" }
%class.veloxtpFlexLexer = type <{ %class.FlexLexer.base, i32, i32, [4 x i8], ptr, %"class.std::basic_istream", %"class.std::basic_ostream", i8, [3 x i8], i32, ptr, i32, i32, i32, [4 x i8], i64, i64, ptr, i32, [4 x i8], ptr, ptr, ptr, ptr, ptr, i32, i32, i32, i32, i32, i32, i32, [4 x i8] }>
%class.FlexLexer.base = type <{ ptr, ptr, i32, i32, i32 }>

@_ZL12yy_NUL_trans = internal constant <{ i32, i32, i32, [58 x i32] }> <{ i32 0, i32 4, i32 4, [58 x i32] zeroinitializer }>, align 16

; Function Attrs: mustprogress nounwind uwtable
define noundef i32 @_ZN16veloxtpFlexLexer16yy_try_NUL_transEi(ptr noundef nonnull align 8 dereferenceable(732) %this, i32 noundef %yy_current_state) #4 align 2 {
entry:
  %this.addr = alloca ptr, align 8
  %yy_current_state.addr = alloca i32, align 4
  %yy_is_jam = alloca i32, align 4
  %yy_cp = alloca ptr, align 8
  store ptr %this, ptr %this.addr, align 8
  store i32 %yy_current_state, ptr %yy_current_state.addr, align 4
  %this1 = load ptr, ptr %this.addr, align 8
  %yy_c_buf_p = getelementptr inbounds %class.veloxtpFlexLexer, ptr %this1, i32 0, i32 10
  %0 = load ptr, ptr %yy_c_buf_p, align 8
  store ptr %0, ptr %yy_cp, align 8
  %1 = load i32, ptr %yy_current_state.addr, align 4
  %idxprom = sext i32 %1 to i64
  %arrayidx = getelementptr inbounds [61 x i32], ptr @_ZL12yy_NUL_trans, i64 0, i64 %idxprom
  %2 = load i32, ptr %arrayidx, align 4
  store i32 %2, ptr %yy_current_state.addr, align 4
  %3 = load i32, ptr %yy_current_state.addr, align 4
  %cmp = icmp eq i32 %3, 0
  %conv = zext i1 %cmp to i32
  store i32 %conv, ptr %yy_is_jam, align 4
  %4 = load i32, ptr %yy_is_jam, align 4
  %tobool = icmp ne i32 %4, 0
  br i1 %tobool, label %if.end6, label %if.then

if.then:                                          ; preds = %entry
  %5 = load i32, ptr %yy_current_state.addr, align 4
  %idxprom2 = sext i32 %5 to i64
  %arrayidx3 = getelementptr inbounds [61 x i16], ptr @_ZL9yy_accept, i64 0, i64 %idxprom2
  %6 = load i16, ptr %arrayidx3, align 2
  %tobool4 = icmp ne i16 %6, 0
  br i1 %tobool4, label %if.then5, label %if.end

if.then5:                                         ; preds = %if.then
  %7 = load i32, ptr %yy_current_state.addr, align 4
  %yy_last_accepting_state = getelementptr inbounds %class.veloxtpFlexLexer, ptr %this1, i32 0, i32 18
  store i32 %7, ptr %yy_last_accepting_state, align 8
  %8 = load ptr, ptr %yy_cp, align 8
  %yy_last_accepting_cpos = getelementptr inbounds %class.veloxtpFlexLexer, ptr %this1, i32 0, i32 20
  store ptr %8, ptr %yy_last_accepting_cpos, align 8
  br label %if.end

if.end:                                           ; preds = %if.then5, %if.then
  br label %if.end6

if.end6:                                          ; preds = %if.end, %entry
  %9 = load i32, ptr %yy_is_jam, align 4
  %tobool7 = icmp ne i32 %9, 0
  br i1 %tobool7, label %cond.true, label %cond.false

cond.true:                                        ; preds = %if.end6
  br label %cond.end

cond.false:                                       ; preds = %if.end6
  %10 = load i32, ptr %yy_current_state.addr, align 4
  br label %cond.end

cond.end:                                         ; preds = %cond.false, %cond.true
  %cond = phi i32 [ 0, %cond.true ], [ %10, %cond.false ]
  ret i32 %cond
}