; Function Attrs: mustprogress nofree norecurse nosync nounwind willreturn memory(argmem: readwrite) uwtable
define noundef i32 @_ZN16veloxtpFlexLexer16yy_try_NUL_transEi(ptr nocapture noundef nonnull align 8 dereferenceable(732) %this, i32 noundef %yy_current_state) local_unnamed_addr #6 align 2 {
entry:
  %idxprom = sext i32 %yy_current_state to i64
  %arrayidx = getelementptr inbounds [61 x i32], ptr @_ZL12yy_NUL_trans, i64 0, i64 %idxprom
  %0 = load i32, ptr %arrayidx, align 4
  switch i32 %0, label %if.then5 [
    i32 0, label %if.end6
    i32 19, label %if.end6
  ]

if.then5:                                         ; preds = %entry
  %yy_c_buf_p = getelementptr inbounds i8, ptr %this, i64 608
  %1 = load ptr, ptr %yy_c_buf_p, align 8
  %yy_last_accepting_state = getelementptr inbounds i8, ptr %this, i64 656
  store i32 %0, ptr %yy_last_accepting_state, align 8
  %yy_last_accepting_cpos = getelementptr inbounds i8, ptr %this, i64 664
  store ptr %1, ptr %yy_last_accepting_cpos, align 8
  br label %if.end6

if.end6:                                          ; preds = %entry, %entry, %if.then5
  ret i32 %0
}